; Function Attrs: nounwind uwtable
define internal void @tt_construct_ps_name(ptr nocapture noundef %0) #2 {
  %2 = getelementptr inbounds i8, ptr %0, i64 184
  %3 = load ptr, ptr %2, align 8
  %4 = getelementptr inbounds i8, ptr %0, i64 1184
  %5 = load ptr, ptr %4, align 8
  tail call void @ft_mem_free(ptr noundef %3, ptr noundef %5) #22
  store ptr null, ptr %4, align 8
  ret void
}